; ModuleID = 'source-C-CXX/10/140.c'
source_filename = "source-C-CXX/10/140.c"
target datalayout = "e-m:e-p270:32:32-p271:32:32-p272:64:64-i64:64-f80:128-n8:16:32:64-S128"
target triple = "x86_64-pc-linux-gnu"

@.str = private unnamed_addr constant [9 x i8] c"%d %d %d\00", align 1
@.str.1 = private unnamed_addr constant [3 x i8] c"%d\00", align 1

; Function Attrs: nofree nounwind sspstrong uwtable
define dso_local i32 @main() local_unnamed_addr #0 {
  %1 = alloca i32, align 4
  %2 = alloca i32, align 4
  %3 = alloca i32, align 4
  %4 = bitcast i32* %1 to i8*
  call void @llvm.lifetime.start.p0i8(i64 4, i8* nonnull %4) #3
  %5 = bitcast i32* %2 to i8*
  call void @llvm.lifetime.start.p0i8(i64 4, i8* nonnull %5) #3
  %6 = bitcast i32* %3 to i8*
  call void @llvm.lifetime.start.p0i8(i64 4, i8* nonnull %6) #3
  %7 = call i32 (i8*, ...) @__isoc99_scanf(i8* getelementptr inbounds ([9 x i8], [9 x i8]* @.str, i64 0, i64 0), i32* nonnull %1, i32* nonnull %2, i32* nonnull %3)
  %8 = load i32, i32* %1, align 4, !tbaa !5
  %9 = and i32 %8, 3
  %10 = icmp eq i32 %9, 0
  %11 = srem i32 %8, 100
  %12 = icmp eq i32 %11, 0
  %13 = or i1 %10, %12
  %14 = load i32, i32* %2, align 4, !tbaa !5
  br i1 %13, label %15, label %28

15:                                               ; preds = %0
  switch i32 %14, label %21 [
    i32 1, label %16
    i32 2, label %18
  ]

16:                                               ; preds = %15
  %17 = load i32, i32* %3, align 4, !tbaa !5
  br label %41

18:                                               ; preds = %15
  %19 = load i32, i32* %3, align 4, !tbaa !5
  %20 = add nsw i32 %19, 31
  br label %41

21:                                               ; preds = %15
  %22 = mul i32 %14, 31
  %23 = load i32, i32* %3, align 4, !tbaa !5
  %24 = sdiv i32 %14, -2
  %25 = add i32 %22, -32
  %26 = add i32 %25, %24
  %27 = add i32 %26, %23
  br label %41

28:                                               ; preds = %0
  switch i32 %14, label %34 [
    i32 1, label %29
    i32 2, label %31
  ]

29:                                               ; preds = %28
  %30 = load i32, i32* %3, align 4, !tbaa !5
  br label %41

31:                                               ; preds = %28
  %32 = load i32, i32* %3, align 4, !tbaa !5
  %33 = add nsw i32 %32, 31
  br label %41

34:                                               ; preds = %28
  %35 = mul i32 %14, 31
  %36 = load i32, i32* %3, align 4, !tbaa !5
  %37 = sdiv i32 %14, -2
  %38 = add i32 %35, -32
  %39 = add i32 %38, %37
  %40 = add i32 %39, %36
  br label %41

41:                                               ; preds = %29, %34, %31, %16, %21, %18
  %42 = phi i32 [ %17, %16 ], [ %20, %18 ], [ %27, %21 ], [ %30, %29 ], [ %33, %31 ], [ %40, %34 ]
  %43 = call i32 (i8*, ...) @printf(i8* nonnull dereferenceable(1) getelementptr inbounds ([3 x i8], [3 x i8]* @.str.1, i64 0, i64 0), i32 %42)
  call void @llvm.lifetime.end.p0i8(i64 4, i8* nonnull %6) #3
  call void @llvm.lifetime.end.p0i8(i64 4, i8* nonnull %5) #3
  call void @llvm.lifetime.end.p0i8(i64 4, i8* nonnull %4) #3
  ret i32 0
}

; Function Attrs: argmemonly mustprogress nofree nosync nounwind willreturn
declare void @llvm.lifetime.start.p0i8(i64 immarg, i8* nocapture) #1

; Function Attrs: nofree nounwind
declare noundef i32 @__isoc99_scanf(i8* nocapture noundef readonly, ...) local_unnamed_addr #2

; Function Attrs: nofree nounwind
declare noundef i32 @printf(i8* nocapture noundef readonly, ...) local_unnamed_addr #2

; Function Attrs: argmemonly mustprogress nofree nosync nounwind willreturn
declare void @llvm.lifetime.end.p0i8(i64 immarg, i8* nocapture) #1


!llvm.module.flags = !{!0, !1, !2, !3}
!llvm.ident = !{!4}

!0 = !{i32 1, !"wchar_size", i32 4}
!1 = !{i32 7, !"PIC Level", i32 2}
!2 = !{i32 7, !"PIE Level", i32 2}
!3 = !{i32 7, !"uwtable", i32 1}
!4 = !{!"clang version 13.0.0"}
!5 = !{!6, !6, i64 0}
!6 = !{!"int", !7, i64 0}
!7 = !{!"omnipotent char", !8, i64 0}
!8 = !{!"Simple C/C++ TBAA"}
